ccopy_reg
_reconstructor
p0
(cgoogle.oauth2.credentials
Credentials
p1
c__builtin__
object
p2
Ntp3
Rp4
(dp5
S'_quota_project_id'
p6
NsS'_token_uri'
p7
Vhttps://oauth2.googleapis.com/token
p8
sS'_scopes'
p9
(lp10
S'https://www.googleapis.com/auth/drive'
p11
asS'_default_scopes'
p12
NsS'expiry'
p13
cdatetime
datetime
p14
(S'\x07\xe6\x0c\x11\x10 \x0e\x05\x8d\x9a'
p15
tp16
Rp17
sS'token'
p18
Vya29.a0AX9GBdWe3mtlh-hE-qsgNPorcl-g-fHSwe_yIjsue_kRbGQAzMJY2hUxdObaMGXScyR3TZwfnZkmDMJZGah1-X55uWJ4SSrX0WZPYx2G55fvzoH4XBLQEwtuRMdpDC9P5dafDk2_RHH0oV4IgKcpkuLMnS04aCgYKAdMSARMSFQHUCsbC-AFuV5tm18W_N_zoyRjQAA0163
p19
sS'_refresh_token'
p20
V1//0g-5onfu0Pv_jCgYIARAAGBASNgF-L9IroaWnbP4_2LKz5_TdEmUlumsGK59xWXXUeY3EvTo36FNGY5Q1Ebkunflf6iJY7PyL2w
p21
sS'_client_secret'
p22
VGOCSPX-PaU8L6AjIp3zfDYj_4FFC7zDgoLZ
p23
sS'_client_id'
p24
V733688890935-87hot4hdfmdrktght7jim4jv3oghrfph.apps.googleusercontent.com
p25
sS'_id_token'
p26
NsS'_rapt_token'
p27
Nsb.